; Function Attrs: mustprogress nounwind uwtable
define dso_local noundef nonnull align 8 dereferenceable(24) ptr @_ZN4node4quic11TokenSecretaSEPKh(ptr noundef nonnull returned writeonly align 8 dereferenceable(24) %this, ptr noundef readonly %other) local_unnamed_addr #3 align 2 {
entry:
  %cmp.not = icmp eq ptr %other, null
  br i1 %cmp.not, label %do.body4, label %do.end5

do.body4:                                         ; preds = %entry
  tail call void @_ZN4node6AssertERKNS_13AssertionInfoE(ptr noundef nonnull align 8 dereferenceable(24) @_ZZN4node4quic11TokenSecretaSEPKhE4args) #17
  tail call void @abort() #18
  unreachable

do.end5:                                          ; preds = %entry
  %buf_ = getelementptr inbounds i8, ptr %this, i64 8
  tail call void @llvm.memcpy.p0.p0.i64(ptr noundef nonnull align 8 dereferenceable(16) %buf_, ptr noundef nonnull align 1 dereferenceable(16) %other, i64 16, i1 false)
  ret ptr %this
}